target datalayout = "e-m:e-p270:32:32-p271:32:32-p272:64:64-i64:64-i128:128-f80:128-n8:16:32:64-S128"
target triple = "x86_64-pc-linux-gnu"

%struct.SDL_BlitInfo = type { ptr, ptr, i32, i32, i32, i32, ptr, ptr, i32, i32, i32, i32, ptr, ptr, ptr, ptr, ptr, ptr, i32, i32, i8, i8, i8, i8 }
%struct.SDL_PixelFormatDetails = type { i32, i8, i8, [2 x i8], i32, i32, i32, i32, i8, i8, i8, i8, i8, i8, i8, i8 }

; Function Attrs: alwaysinline nounwind uwtable
define internal void @BlitBto3(ptr noundef %0, i32 noundef %1) #2 {
  %3 = alloca ptr, align 8
  %4 = alloca i32, align 4
  %5 = alloca i32, align 4
  %6 = alloca i32, align 4
  %7 = alloca i32, align 4
  %8 = alloca i32, align 4
  %9 = alloca i32, align 4
  %10 = alloca i32, align 4
  %11 = alloca ptr, align 8
  %12 = alloca ptr, align 8
  %13 = alloca ptr, align 8
  %14 = alloca i32, align 4
  %15 = alloca i32, align 4
  %16 = alloca i8, align 1
  %17 = alloca i8, align 1
  %18 = alloca i8, align 1
  %19 = alloca i8, align 1
  store ptr %0, ptr %3, align 8
  store i32 %1, ptr %4, align 4
  call void @llvm.lifetime.start.p0(i64 4, ptr %5) #4
  %20 = load i32, ptr %4, align 4
  %21 = shl i32 1, %20
  %22 = sub nsw i32 %21, 1
  store i32 %22, ptr %5, align 4
  call void @llvm.lifetime.start.p0(i64 4, ptr %6) #4
  %23 = load i32, ptr %4, align 4
  %24 = udiv i32 8, %23
  %25 = sub i32 %24, 1
  store i32 %25, ptr %6, align 4
  call void @llvm.lifetime.start.p0(i64 4, ptr %7) #4
  call void @llvm.lifetime.start.p0(i64 4, ptr %8) #4
  call void @llvm.lifetime.start.p0(i64 4, ptr %9) #4
  call void @llvm.lifetime.start.p0(i64 4, ptr %10) #4
  call void @llvm.lifetime.start.p0(i64 8, ptr %11) #4
  call void @llvm.lifetime.start.p0(i64 8, ptr %12) #4
  call void @llvm.lifetime.start.p0(i64 8, ptr %13) #4
  call void @llvm.lifetime.start.p0(i64 4, ptr %14) #4
  call void @llvm.lifetime.start.p0(i64 4, ptr %15) #4
  %26 = load ptr, ptr %3, align 8
  %27 = getelementptr inbounds nuw %struct.SDL_BlitInfo, ptr %26, i32 0, i32 8
  %28 = load i32, ptr %27, align 8
  store i32 %28, ptr %9, align 4
  %29 = load ptr, ptr %3, align 8
  %30 = getelementptr inbounds nuw %struct.SDL_BlitInfo, ptr %29, i32 0, i32 9
  %31 = load i32, ptr %30, align 4
  store i32 %31, ptr %10, align 4
  %32 = load ptr, ptr %3, align 8
  %33 = getelementptr inbounds nuw %struct.SDL_BlitInfo, ptr %32, i32 0, i32 1
  %34 = load ptr, ptr %33, align 8
  store ptr %34, ptr %11, align 8
  %35 = load ptr, ptr %3, align 8
  %36 = getelementptr inbounds nuw %struct.SDL_BlitInfo, ptr %35, i32 0, i32 5
  %37 = load i32, ptr %36, align 4
  store i32 %37, ptr %14, align 4
  %38 = load ptr, ptr %3, align 8
  %39 = getelementptr inbounds nuw %struct.SDL_BlitInfo, ptr %38, i32 0, i32 7
  %40 = load ptr, ptr %39, align 8
  store ptr %40, ptr %13, align 8
  %41 = load ptr, ptr %3, align 8
  %42 = getelementptr inbounds nuw %struct.SDL_BlitInfo, ptr %41, i32 0, i32 11
  %43 = load i32, ptr %42, align 4
  store i32 %43, ptr %15, align 4
  %44 = load ptr, ptr %3, align 8
  %45 = getelementptr inbounds nuw %struct.SDL_BlitInfo, ptr %44, i32 0, i32 16
  %46 = load ptr, ptr %45, align 8
  store ptr %46, ptr %12, align 8
  %47 = load i32, ptr %4, align 4
  %48 = icmp eq i32 %47, 4
  br i1 %48, label %49, label %57

49:                                               ; preds = %2
  %50 = load i32, ptr %9, align 4
  %51 = load i32, ptr %9, align 4
  %52 = add nsw i32 %51, 1
  %53 = sdiv i32 %52, 2
  %54 = sub nsw i32 %50, %53
  %55 = load i32, ptr %14, align 4
  %56 = add nsw i32 %55, %54
  store i32 %56, ptr %14, align 4
  br label %81

57:                                               ; preds = %2
  %58 = load i32, ptr %4, align 4
  %59 = icmp eq i32 %58, 2
  br i1 %59, label %60, label %68

60:                                               ; preds = %57
  %61 = load i32, ptr %9, align 4
  %62 = load i32, ptr %9, align 4
  %63 = add nsw i32 %62, 3
  %64 = sdiv i32 %63, 4
  %65 = sub nsw i32 %61, %64
  %66 = load i32, ptr %14, align 4
  %67 = add nsw i32 %66, %65
  store i32 %67, ptr %14, align 4
  br label %80

68:                                               ; preds = %57
  %69 = load i32, ptr %4, align 4
  %70 = icmp eq i32 %69, 1
  br i1 %70, label %71, label %79

71:                                               ; preds = %68
  %72 = load i32, ptr %9, align 4
  %73 = load i32, ptr %9, align 4
  %74 = add nsw i32 %73, 7
  %75 = sdiv i32 %74, 8
  %76 = sub nsw i32 %72, %75
  %77 = load i32, ptr %14, align 4
  %78 = add nsw i32 %77, %76
  store i32 %78, ptr %14, align 4
  br label %79

79:                                               ; preds = %71, %68
  br label %80

80:                                               ; preds = %79, %60
  br label %81

81:                                               ; preds = %80, %49
  %82 = load ptr, ptr %3, align 8
  %83 = getelementptr inbounds nuw %struct.SDL_BlitInfo, ptr %82, i32 0, i32 12
  %84 = load ptr, ptr %83, align 8
  %85 = getelementptr inbounds nuw %struct.SDL_PixelFormatDetails, ptr %84, i32 0, i32 0
  %86 = load i32, ptr %85, align 4
  %87 = lshr i32 %86, 20
  %88 = and i32 %87, 15
  %89 = icmp eq i32 %88, 1
  br i1 %89, label %90, label %162

90:                                               ; preds = %81
  br label %91

91:                                               ; preds = %152, %90
  %92 = load i32, ptr %10, align 4
  %93 = add nsw i32 %92, -1
  store i32 %93, ptr %10, align 4
  %94 = icmp ne i32 %92, 0
  br i1 %94, label %95, label %161

95:                                               ; preds = %91
  call void @llvm.lifetime.start.p0(i64 1, ptr %16) #4
  store i8 0, ptr %16, align 1
  call void @llvm.lifetime.start.p0(i64 1, ptr %17) #4
  store i32 0, ptr %7, align 4
  br label %96

96:                                               ; preds = %149, %95
  %97 = load i32, ptr %7, align 4
  %98 = load i32, ptr %9, align 4
  %99 = icmp slt i32 %97, %98
  br i1 %99, label %100, label %152

100:                                              ; preds = %96
  %101 = load i32, ptr %7, align 4
  %102 = load i32, ptr %6, align 4
  %103 = and i32 %101, %102
  %104 = icmp ne i32 %103, 0
  br i1 %104, label %109, label %105

105:                                              ; preds = %100
  %106 = load ptr, ptr %11, align 8
  %107 = getelementptr inbounds nuw i8, ptr %106, i32 1
  store ptr %107, ptr %11, align 8
  %108 = load i8, ptr %106, align 1
  store i8 %108, ptr %16, align 1
  br label %109

109:                                              ; preds = %105, %100
  %110 = load i8, ptr %16, align 1
  %111 = zext i8 %110 to i32
  %112 = load i32, ptr %5, align 4
  %113 = and i32 %111, %112
  %114 = trunc i32 %113 to i8
  store i8 %114, ptr %17, align 1
  %115 = load i8, ptr %17, align 1
  %116 = zext i8 %115 to i32
  %117 = mul nsw i32 %116, 4
  store i32 %117, ptr %8, align 4
  %118 = load ptr, ptr %12, align 8
  %119 = load i32, ptr %8, align 4
  %120 = add nsw i32 %119, 1
  store i32 %120, ptr %8, align 4
  %121 = sext i32 %119 to i64
  %122 = getelementptr inbounds i8, ptr %118, i64 %121
  %123 = load i8, ptr %122, align 1
  %124 = load ptr, ptr %13, align 8
  %125 = getelementptr inbounds i8, ptr %124, i64 0
  store i8 %123, ptr %125, align 1
  %126 = load ptr, ptr %12, align 8
  %127 = load i32, ptr %8, align 4
  %128 = add nsw i32 %127, 1
  store i32 %128, ptr %8, align 4
  %129 = sext i32 %127 to i64
  %130 = getelementptr inbounds i8, ptr %126, i64 %129
  %131 = load i8, ptr %130, align 1
  %132 = load ptr, ptr %13, align 8
  %133 = getelementptr inbounds i8, ptr %132, i64 1
  store i8 %131, ptr %133, align 1
  %134 = load ptr, ptr %12, align 8
  %135 = load i32, ptr %8, align 4
  %136 = add nsw i32 %135, 1
  store i32 %136, ptr %8, align 4
  %137 = sext i32 %135 to i64
  %138 = getelementptr inbounds i8, ptr %134, i64 %137
  %139 = load i8, ptr %138, align 1
  %140 = load ptr, ptr %13, align 8
  %141 = getelementptr inbounds i8, ptr %140, i64 2
  store i8 %139, ptr %141, align 1
  %142 = load i32, ptr %4, align 4
  %143 = load i8, ptr %16, align 1
  %144 = zext i8 %143 to i32
  %145 = ashr i32 %144, %142
  %146 = trunc i32 %145 to i8
  store i8 %146, ptr %16, align 1
  %147 = load ptr, ptr %13, align 8
  %148 = getelementptr inbounds i8, ptr %147, i64 3
  store ptr %148, ptr %13, align 8
  br label %149

149:                                              ; preds = %109
  %150 = load i32, ptr %7, align 4
  %151 = add nsw i32 %150, 1
  store i32 %151, ptr %7, align 4
  br label %96, !llvm.loop !24

152:                                              ; preds = %96
  %153 = load i32, ptr %14, align 4
  %154 = load ptr, ptr %11, align 8
  %155 = sext i32 %153 to i64
  %156 = getelementptr inbounds i8, ptr %154, i64 %155
  store ptr %156, ptr %11, align 8
  %157 = load i32, ptr %15, align 4
  %158 = load ptr, ptr %13, align 8
  %159 = sext i32 %157 to i64
  %160 = getelementptr inbounds i8, ptr %158, i64 %159
  store ptr %160, ptr %13, align 8
  call void @llvm.lifetime.end.p0(i64 1, ptr %17) #4
  call void @llvm.lifetime.end.p0(i64 1, ptr %16) #4
  br label %91, !llvm.loop !25

161:                                              ; preds = %91
  br label %237

162:                                              ; preds = %81
  br label %163

163:                                              ; preds = %227, %162
  %164 = load i32, ptr %10, align 4
  %165 = add nsw i32 %164, -1
  store i32 %165, ptr %10, align 4
  %166 = icmp ne i32 %164, 0
  br i1 %166, label %167, label %236

167:                                              ; preds = %163
  call void @llvm.lifetime.start.p0(i64 1, ptr %18) #4
  store i8 0, ptr %18, align 1
  call void @llvm.lifetime.start.p0(i64 1, ptr %19) #4
  store i32 0, ptr %7, align 4
  br label %168

168:                                              ; preds = %224, %167
  %169 = load i32, ptr %7, align 4
  %170 = load i32, ptr %9, align 4
  %171 = icmp slt i32 %169, %170
  br i1 %171, label %172, label %227

172:                                              ; preds = %168
  %173 = load i32, ptr %7, align 4
  %174 = load i32, ptr %6, align 4
  %175 = and i32 %173, %174
  %176 = icmp ne i32 %175, 0
  br i1 %176, label %181, label %177

177:                                              ; preds = %172
  %178 = load ptr, ptr %11, align 8
  %179 = getelementptr inbounds nuw i8, ptr %178, i32 1
  store ptr %179, ptr %11, align 8
  %180 = load i8, ptr %178, align 1
  store i8 %180, ptr %18, align 1
  br label %181

181:                                              ; preds = %177, %172
  %182 = load i8, ptr %18, align 1
  %183 = zext i8 %182 to i32
  %184 = load i32, ptr %4, align 4
  %185 = sub i32 8, %184
  %186 = ashr i32 %183, %185
  %187 = load i32, ptr %5, align 4
  %188 = and i32 %186, %187
  %189 = trunc i32 %188 to i8
  store i8 %189, ptr %19, align 1
  %190 = load i8, ptr %19, align 1
  %191 = zext i8 %190 to i32
  %192 = mul nsw i32 %191, 4
  store i32 %192, ptr %8, align 4
  %193 = load ptr, ptr %12, align 8
  %194 = load i32, ptr %8, align 4
  %195 = add nsw i32 %194, 1
  store i32 %195, ptr %8, align 4
  %196 = sext i32 %194 to i64
  %197 = getelementptr inbounds i8, ptr %193, i64 %196
  %198 = load i8, ptr %197, align 1
  %199 = load ptr, ptr %13, align 8
  %200 = getelementptr inbounds i8, ptr %199, i64 0
  store i8 %198, ptr %200, align 1
  %201 = load ptr, ptr %12, align 8
  %202 = load i32, ptr %8, align 4
  %203 = add nsw i32 %202, 1
  store i32 %203, ptr %8, align 4
  %204 = sext i32 %202 to i64
  %205 = getelementptr inbounds i8, ptr %201, i64 %204
  %206 = load i8, ptr %205, align 1
  %207 = load ptr, ptr %13, align 8
  %208 = getelementptr inbounds i8, ptr %207, i64 1
  store i8 %206, ptr %208, align 1
  %209 = load ptr, ptr %12, align 8
  %210 = load i32, ptr %8, align 4
  %211 = add nsw i32 %210, 1
  store i32 %211, ptr %8, align 4
  %212 = sext i32 %210 to i64
  %213 = getelementptr inbounds i8, ptr %209, i64 %212
  %214 = load i8, ptr %213, align 1
  %215 = load ptr, ptr %13, align 8
  %216 = getelementptr inbounds i8, ptr %215, i64 2
  store i8 %214, ptr %216, align 1
  %217 = load i32, ptr %4, align 4
  %218 = load i8, ptr %18, align 1
  %219 = zext i8 %218 to i32
  %220 = shl i32 %219, %217
  %221 = trunc i32 %220 to i8
  store i8 %221, ptr %18, align 1
  %222 = load ptr, ptr %13, align 8
  %223 = getelementptr inbounds i8, ptr %222, i64 3
  store ptr %223, ptr %13, align 8
  br label %224

224:                                              ; preds = %181
  %225 = load i32, ptr %7, align 4
  %226 = add nsw i32 %225, 1
  store i32 %226, ptr %7, align 4
  br label %168, !llvm.loop !26

227:                                              ; preds = %168
  %228 = load i32, ptr %14, align 4
  %229 = load ptr, ptr %11, align 8
  %230 = sext i32 %228 to i64
  %231 = getelementptr inbounds i8, ptr %229, i64 %230
  store ptr %231, ptr %11, align 8
  %232 = load i32, ptr %15, align 4
  %233 = load ptr, ptr %13, align 8
  %234 = sext i32 %232 to i64
  %235 = getelementptr inbounds i8, ptr %233, i64 %234
  store ptr %235, ptr %13, align 8
  call void @llvm.lifetime.end.p0(i64 1, ptr %19) #4
  call void @llvm.lifetime.end.p0(i64 1, ptr %18) #4
  br label %163, !llvm.loop !27

236:                                              ; preds = %163
  br label %237

237:                                              ; preds = %236, %161
  call void @llvm.lifetime.end.p0(i64 4, ptr %15) #4
  call void @llvm.lifetime.end.p0(i64 4, ptr %14) #4
  call void @llvm.lifetime.end.p0(i64 8, ptr %13) #4
  call void @llvm.lifetime.end.p0(i64 8, ptr %12) #4
  call void @llvm.lifetime.end.p0(i64 8, ptr %11) #4
  call void @llvm.lifetime.end.p0(i64 4, ptr %10) #4
  call void @llvm.lifetime.end.p0(i64 4, ptr %9) #4
  call void @llvm.lifetime.end.p0(i64 4, ptr %8) #4
  call void @llvm.lifetime.end.p0(i64 4, ptr %7) #4
  call void @llvm.lifetime.end.p0(i64 4, ptr %6) #4
  call void @llvm.lifetime.end.p0(i64 4, ptr %5) #4
  ret void
}

; Function Attrs: nounwind uwtable
define internal void @Blit2bto3(ptr noundef %0) #0 {
  %2 = alloca ptr, align 8
  store ptr %0, ptr %2, align 8
  %3 = load ptr, ptr %2, align 8
  call void @BlitBto3(ptr noundef %3, i32 noundef 2)
  ret void
}