; Function Attrs: nofree norecurse nosync nounwind memory(readwrite, inaccessiblemem: none) uwtable
define internal void @Blit2bto3(ptr noundef readonly captures(none) %0) #1 {
  %2 = getelementptr inbounds nuw i8, ptr %0, i64 48
  %3 = load i32, ptr %2, align 8
  %4 = getelementptr inbounds nuw i8, ptr %0, i64 52
  %5 = load i32, ptr %4, align 4
  %6 = getelementptr inbounds nuw i8, ptr %0, i64 8
  %7 = load ptr, ptr %6, align 8
  %8 = getelementptr inbounds nuw i8, ptr %0, i64 28
  %9 = load i32, ptr %8, align 4
  %10 = getelementptr inbounds nuw i8, ptr %0, i64 40
  %11 = load ptr, ptr %10, align 8
  %12 = getelementptr inbounds nuw i8, ptr %0, i64 60
  %13 = load i32, ptr %12, align 4
  %14 = getelementptr inbounds nuw i8, ptr %0, i64 96
  %15 = load ptr, ptr %14, align 8
  %16 = add nsw i32 %3, 3
  %.neg88.i = sdiv i32 %16, -4
  %17 = add i32 %.neg88.i, %3
  %18 = add nsw i32 %17, %9
  %19 = getelementptr inbounds nuw i8, ptr %0, i64 64
  %20 = load ptr, ptr %19, align 8
  %21 = load i32, ptr %20, align 4
  %22 = and i32 %21, 15728640
  %23 = icmp eq i32 %22, 1048576
  %.not91.i18 = icmp eq i32 %5, 0
  br i1 %23, label %.preheader1, label %.preheader3

.preheader3:                                      ; preds = %1
  br i1 %.not91.i18, label %BlitBto3.exit, label %.preheader2.lr.ph

.preheader2.lr.ph:                                ; preds = %.preheader3
  %24 = icmp sgt i32 %3, 0
  %25 = sext i32 %18 to i64
  %26 = sext i32 %13 to i64
  br i1 %24, label %.preheader2.us, label %BlitBto3.exit

.preheader2.us:                                   ; preds = %.preheader2.lr.ph, %._crit_edge.us
  %.in = phi i32 [ %27, %._crit_edge.us ], [ %5, %.preheader2.lr.ph ]
  %.2.i12.us = phi ptr [ %49, %._crit_edge.us ], [ %11, %.preheader2.lr.ph ]
  %.386.i11.us = phi ptr [ %48, %._crit_edge.us ], [ %7, %.preheader2.lr.ph ]
  %27 = add nsw i32 %.in, -1
  br label %28

28:                                               ; preds = %.preheader2.us, %33
  %.1.i8.us = phi i32 [ 0, %.preheader2.us ], [ %47, %33 ]
  %.074.i7.us = phi i8 [ 0, %.preheader2.us ], [ %45, %33 ]
  %.3.i6.us = phi ptr [ %.2.i12.us, %.preheader2.us ], [ %46, %33 ]
  %.4.i5.us = phi ptr [ %.386.i11.us, %.preheader2.us ], [ %.5.i.us, %33 ]
  %29 = and i32 %.1.i8.us, 3
  %.not90.i.us = icmp eq i32 %29, 0
  br i1 %.not90.i.us, label %30, label %33

30:                                               ; preds = %28
  %31 = getelementptr inbounds nuw i8, ptr %.4.i5.us, i64 1
  %32 = load i8, ptr %.4.i5.us, align 1
  br label %33

33:                                               ; preds = %30, %28
  %.5.i.us = phi ptr [ %.4.i5.us, %28 ], [ %31, %30 ]
  %.175.i.us = phi i8 [ %.074.i7.us, %28 ], [ %32, %30 ]
  %34 = lshr i8 %.175.i.us, 4
  %35 = and i8 %34, 12
  %36 = zext nneg i8 %35 to i64
  %37 = getelementptr inbounds nuw i8, ptr %15, i64 %36
  %38 = load i8, ptr %37, align 1
  store i8 %38, ptr %.3.i6.us, align 1
  %39 = getelementptr inbounds nuw i8, ptr %37, i64 1
  %40 = load i8, ptr %39, align 1
  %41 = getelementptr inbounds nuw i8, ptr %.3.i6.us, i64 1
  store i8 %40, ptr %41, align 1
  %42 = getelementptr inbounds nuw i8, ptr %37, i64 2
  %43 = load i8, ptr %42, align 1
  %44 = getelementptr inbounds nuw i8, ptr %.3.i6.us, i64 2
  store i8 %43, ptr %44, align 1
  %45 = shl i8 %.175.i.us, 2
  %46 = getelementptr inbounds nuw i8, ptr %.3.i6.us, i64 3
  %47 = add nuw nsw i32 %.1.i8.us, 1
  %exitcond.not = icmp eq i32 %47, %3
  br i1 %exitcond.not, label %._crit_edge.us, label %28, !llvm.loop !24

._crit_edge.us:                                   ; preds = %33
  %48 = getelementptr inbounds i8, ptr %.5.i.us, i64 %25
  %49 = getelementptr inbounds i8, ptr %46, i64 %26
  %.not.i.us = icmp eq i32 %27, 0
  br i1 %.not.i.us, label %BlitBto3.exit, label %.preheader2.us, !llvm.loop !25

.preheader1:                                      ; preds = %1
  br i1 %.not91.i18, label %BlitBto3.exit, label %.preheader.lr.ph

.preheader.lr.ph:                                 ; preds = %.preheader1
  %50 = icmp sgt i32 %3, 0
  %51 = sext i32 %18 to i64
  %52 = sext i32 %13 to i64
  br i1 %50, label %.preheader.us, label %BlitBto3.exit

.preheader.us:                                    ; preds = %.preheader.lr.ph, %._crit_edge.us21
  %.in28 = phi i32 [ %53, %._crit_edge.us21 ], [ %5, %.preheader.lr.ph ]
  %.081.i20.us = phi ptr [ %75, %._crit_edge.us21 ], [ %11, %.preheader.lr.ph ]
  %.083.i19.us = phi ptr [ %74, %._crit_edge.us21 ], [ %7, %.preheader.lr.ph ]
  %53 = add nsw i32 %.in28, -1
  br label %54

54:                                               ; preds = %.preheader.us, %59
  %.0.i16.us = phi i32 [ 0, %.preheader.us ], [ %73, %59 ]
  %.076.i15.us = phi i8 [ 0, %.preheader.us ], [ %71, %59 ]
  %.182.i14.us = phi ptr [ %.081.i20.us, %.preheader.us ], [ %72, %59 ]
  %.184.i13.us = phi ptr [ %.083.i19.us, %.preheader.us ], [ %.285.i.us, %59 ]
  %55 = and i32 %.0.i16.us, 3
  %.not92.i.us = icmp eq i32 %55, 0
  br i1 %.not92.i.us, label %56, label %59

56:                                               ; preds = %54
  %57 = getelementptr inbounds nuw i8, ptr %.184.i13.us, i64 1
  %58 = load i8, ptr %.184.i13.us, align 1
  br label %59

59:                                               ; preds = %56, %54
  %.285.i.us = phi ptr [ %.184.i13.us, %54 ], [ %57, %56 ]
  %.177.i.us = phi i8 [ %.076.i15.us, %54 ], [ %58, %56 ]
  %60 = shl i8 %.177.i.us, 2
  %61 = and i8 %60, 12
  %62 = zext nneg i8 %61 to i64
  %63 = getelementptr inbounds nuw i8, ptr %15, i64 %62
  %64 = load i8, ptr %63, align 1
  store i8 %64, ptr %.182.i14.us, align 1
  %65 = getelementptr inbounds nuw i8, ptr %63, i64 1
  %66 = load i8, ptr %65, align 1
  %67 = getelementptr inbounds nuw i8, ptr %.182.i14.us, i64 1
  store i8 %66, ptr %67, align 1
  %68 = getelementptr inbounds nuw i8, ptr %63, i64 2
  %69 = load i8, ptr %68, align 1
  %70 = getelementptr inbounds nuw i8, ptr %.182.i14.us, i64 2
  store i8 %69, ptr %70, align 1
  %71 = lshr i8 %.177.i.us, 2
  %72 = getelementptr inbounds nuw i8, ptr %.182.i14.us, i64 3
  %73 = add nuw nsw i32 %.0.i16.us, 1
  %exitcond27.not = icmp eq i32 %73, %3
  br i1 %exitcond27.not, label %._crit_edge.us21, label %54, !llvm.loop !26

._crit_edge.us21:                                 ; preds = %59
  %74 = getelementptr inbounds i8, ptr %.285.i.us, i64 %51
  %75 = getelementptr inbounds i8, ptr %72, i64 %52
  %.not91.i.us = icmp eq i32 %53, 0
  br i1 %.not91.i.us, label %BlitBto3.exit, label %.preheader.us, !llvm.loop !27

BlitBto3.exit:                                    ; preds = %._crit_edge.us, %._crit_edge.us21, %.preheader.lr.ph, %.preheader2.lr.ph, %.preheader3, %.preheader1
  ret void
}